; Function Attrs: mustprogress nofree nounwind uwtable
define noundef zeroext i1 @_ZNK7testing8internal8FilePath15DirectoryExistsEv(ptr noundef nonnull readonly align 8 captures(none) dereferenceable(32) %0) local_unnamed_addr #24 align 2 {
  %2 = alloca %struct.stat, align 8
  call void @llvm.lifetime.start.p0(i64 144, ptr nonnull %2) #57
  call void @llvm.memset.p0.i64(ptr noundef nonnull align 8 dereferenceable(144) %2, i8 0, i64 144, i1 false)
  %3 = load ptr, ptr %0, align 8, !tbaa !22
  %4 = call noundef i32 @stat(ptr noundef %3, ptr noundef nonnull %2) #57
  %5 = icmp eq i32 %4, 0
  %6 = getelementptr inbounds nuw i8, ptr %2, i64 24
  %7 = load i32, ptr %6, align 8
  %8 = and i32 %7, 61440
  %9 = icmp eq i32 %8, 16384
  %10 = select i1 %5, i1 %9, i1 false
  call void @llvm.lifetime.end.p0(i64 144, ptr nonnull %2) #57
  ret i1 %10
}